; Function Attrs: nounwind uwtable
define internal ptr @get_recursion_depth(ptr readnone captures(none) %0, ptr readnone captures(none) %1) #0 {
  %3 = tail call ptr @_PyThreadState_GetCurrent() #11
  %4 = getelementptr inbounds nuw i8, ptr %3, i64 48
  %5 = load i32, ptr %4, align 8, !tbaa !11
  %6 = getelementptr inbounds nuw i8, ptr %3, i64 44
  %7 = load i32, ptr %6, align 4, !tbaa !23
  %8 = sub i32 %5, %7
  %9 = sext i32 %8 to i64
  %10 = tail call ptr @PyLong_FromLong(i64 noundef %9) #11
  ret ptr %10
}